(dp0
S'ex1_4'
p1
(dp2
S'inputs'
p3
(lp4
(lp5
S'Spring quarter'
p6
aS'Learning spark basics'
p7
aS'Big data analytics with Spark'
p8
aa(lp9
S'Do not go gentle'
p10
aS'into that good night'
p11
aS'old age should burn and rave'
p12
aa(lp13
S'do'
p14
aS'I dare disturb'
p15
aS'the universe'
p16
aS'there will be time there will be'
p17
aS'time'
p18
aasS'outputs'
p19
(lp20
(lp21
S'Spring quarter Learning spark basics Big data analytics with Spark'
p22
ac__builtin__
str
p23
aa(lp24
S'Do not go gentle into that good night old age should burn and rave'
p25
ag23
aa(lp26
S'do I dare disturb the universe there will be time there will be time'
p27
ag23
aassS'ex1_5'
p28
(dp29
S'inputs'
p30
(lp31
(lp32
(lp33
I15
aI20
aa(lp34
I21
aI14
aa(lp35
I18
aI4
aI20
aaa(lp36
(lp37
I3
aI4
aI5
aI-3
aI19
aa(lp38
F19.1
aa(lp39
I7
aI-11
aaa(lp40
(lp41
F-3.2
aF-3.233
aF-3.9
aa(lp42
I-4
aa(lp43
I-3
aI-5
aaasS'outputs'
p44
(lp45
(lp46
(lp47
I21
aac__builtin__
list
p48
aa(lp49
(lp50
F19.1
aag48
aa(lp51
(lp52
I-3
aag48
aassS'ex1_1'
p53
(dp54
S'inputs'
p55
(lp56
(lp57
I0
aI1
aI2
aa(lp58
I4
aI5
aI6
aI7
aI8
aI9
aI10
aI11
aa(lp59
I-4
aI-3
aI-2
aI-1
aasS'outputs'
p60
(lp61
(lp62
(lp63
cnumpy.core.multiarray
scalar
p64
(cnumpy
dtype
p65
(S'f8'
p66
I0
I1
tp67
Rp68
(I3
S'<'
p69
NNNI-1
I-1
I0
tp70
bS'\x00\x00\x00\x00\x00\x00\xf0?'
p71
tp72
Rp73
ag64
(g68
S'\x8c\x06\xb5\x0f(J\xe1?'
p74
tp75
Rp76
ag64
(g68
S'\x05rSW&\xa2\xda\xbf'
p77
tp78
Rp79
aacpyspark.rdd
PipelinedRDD
p80
aa(lp81
(lp82
g64
(g68
S'\xc1$\xdb\x06\xa6\xea\xe4\xbf'
p83
tp84
Rp85
ag64
(g68
S"\xd9Jkp\x85'\xd2?"
p86
tp87
Rp88
ag64
(g68
S'\xf5"x\t\xb7\xb9\xee?'
p89
tp90
Rp91
ag64
(g68
S'\x17 \xd9\x9e\xf7\x1f\xe8?'
p92
tp93
Rp94
ag64
(g68
S'\x94/c\xbf\xbe\x9f\xc2\xbf'
p95
tp96
Rp97
ag64
(g68
S"k\x19\xa6\xa6\xfa'\xed\xbf"
p98
tp99
Rp100
ag64
(g68
S'\x1fk\x0c\x89\xac\xd9\xea\xbf'
p101
tp102
Rp103
ag64
(g68
S'\xdf/\xeeA\xae r?'
p104
tp105
Rp106
aag80
aa(lp107
(lp108
g64
(g68
S'\xc1$\xdb\x06\xa6\xea\xe4\xbf'
p109
tp110
Rp111
ag64
(g68
S'\xd2\xe5\x85\xbe\x04\xae\xef\xbf'
p112
tp113
Rp114
ag64
(g68
S'\x05rSW&\xa2\xda\xbf'
p115
tp116
Rp117
ag64
(g68
S'\x8c\x06\xb5\x0f(J\xe1?'
p118
tp119
Rp120
aag80
aassS'ex1_2'
p121
(dp122
S'inputs'
p123
(lp124
(lp125
S'Spring quarter'
p126
aS'Learning spark basics'
p127
aS'Big data analytics with Spark'
p128
aa(lp129
S'Do not go gentle'
p130
aS'into that good night'
p131
aS'old age should burn and rave'
p132
aa(lp133
S'do'
p134
aS'I dare disturb'
p135
aS'the universe'
p136
aS'there will be time there will be'
p137
aS'time'
p138
aasS'outputs'
p139
(lp140
(lp141
(lp142
(lp143
S'Spring'
p144
aS'quarter'
p145
aa(lp146
S'Learning'
p147
aS'spark'
p148
aS'basics'
p149
aa(lp150
S'Big'
p151
aS'data'
p152
aS'analytics'
p153
aS'with'
p154
aS'Spark'
p155
aaag80
aa(lp156
(lp157
(lp158
S'Do'
p159
aS'not'
p160
aS'go'
p161
aS'gentle'
p162
aa(lp163
S'into'
p164
aS'that'
p165
aS'good'
p166
aS'night'
p167
aa(lp168
S'old'
p169
aS'age'
p170
aS'should'
p171
aS'burn'
p172
aS'and'
p173
aS'rave'
p174
aaag80
aa(lp175
(lp176
(lp177
S'do'
p178
aa(lp179
S'I'
p180
aS'dare'
p181
aS'disturb'
p182
aa(lp183
S'the'
p184
aS'universe'
p185
aa(lp186
S'there'
p187
aS'will'
p188
aS'be'
p189
aS'time'
p190
aS'there'
p191
aS'will'
p192
aS'be'
p193
aa(lp194
S'time'
p195
aaag80
aassS'ex1_3'
p196
(dp197
S'inputs'
p198
(lp199
(lp200
I0
aI4
aI2
aI3
aI1
aa(lp201
F-3.2
aF-3.233
aF-3.1
aF-3.9
aa(lp202
I2
aI2
aI2
aI2
aI2
aI2
aasS'outputs'
p203
(lp204
(lp205
I4
ac__builtin__
int
p206
aa(lp207
F-3.1
ac__builtin__
float
p208
aa(lp209
I2
ag206
aass.