(dp0
S'ex4'
p1
(dp2
S'inputs'
p3
(lp4
S''
p5
asS'outputs'
p6
(lp7
(lp8
(lp9
(I91
(Vof
p10
Vthe
p11
Vwhale
p12
tp13
tp14
a(I91
(Vthe
p15
Vsperm
p16
Vwhale
p17
tp18
tp19
a(I76
(Vthe
p20
Vwhite
p21
Vwhale
p22
tp23
tp24
a(I55
(Vone
p25
Vof
p26
Vthe
p27
tp28
tp29
a(I54
(Vof
p30
Vthe
p31
Vsea
p32
tp33
tp34
aacpyspark.rdd
PipelinedRDD
p35
aass.