(dp0
S'ex2'
p1
(dp2
S'inputs'
p3
cpyspark.rdd
RDD
p4
sS'outputs'
p5
(lp6
(lp7
(lp8
(Vnormal.
p9
I21075991
tp10
a(Vportsweep.
p11
I1991911
tp12
a(Vwarezclient.
p13
I627563
tp14
a(Vbuffer_overflow.
p15
I2751
tp16
a(Vmultihop.
p17
I1288
tp18
aacpyspark.rdd
PipelinedRDD
p19
aassS'ex3'
p20
(dp21
S'inputs'
p22
g4
sS'outputs'
p23
(lp24
(lp25
(lp26
(Vback.
p27
F0.1289151157512483
tp28
a(Vbuffer_overflow.
p29
F91.7
tp30
a(Vftp_write.
p31
F32.375
tp32
a(Vguess_passwd.
p33
F2.7169811320754715
tp34
a(Vimap.
p35
F6.0
tp36
a(Vipsweep.
p37
F0.034482758620689655
tp38
a(Vland.
p39
F0.0
tp40
a(Vloadmodule.
p41
F36.22222222222222
tp42
a(Vmultihop.
p43
F184.0
tp44
aag19
aassS'ex1'
p45
(dp46
S'inputs'
p47
g4
sS'outputs'
p48
(lp49
(lp50
(lp51
(Vnormal.
p52
(lp53
V0
p54
aVtcp
p55
aVhttp
p56
aVSF
p57
aV181
p58
aV5450
p59
aV0
p60
aV0
p61
aV0
p62
aV0
p63
aV0
p64
aV1
p65
aV0
p66
aV0
p67
aV0
p68
aV0
p69
aV0
p70
aV0
p71
aV0
p72
aV0
p73
aV0
p74
aV0
p75
aV8
p76
aV8
p77
aV0.00
p78
aV0.00
p79
aV0.00
p80
aV0.00
p81
aV1.00
p82
aV0.00
p83
aV0.00
p84
aV9
p85
aV9
p86
aV1.00
p87
aV0.00
p88
aV0.11
p89
aV0.00
p90
aV0.00
p91
aV0.00
p92
aV0.00
p93
aV0.00
p94
aVnormal.
p95
atp96
a(Vnormal.
p97
(lp98
V0
p99
aVtcp
p100
aVhttp
p101
aVSF
p102
aV239
p103
aV486
p104
aV0
p105
aV0
p106
aV0
p107
aV0
p108
aV0
p109
aV1
p110
aV0
p111
aV0
p112
aV0
p113
aV0
p114
aV0
p115
aV0
p116
aV0
p117
aV0
p118
aV0
p119
aV0
p120
aV8
p121
aV8
p122
aV0.00
p123
aV0.00
p124
aV0.00
p125
aV0.00
p126
aV1.00
p127
aV0.00
p128
aV0.00
p129
aV19
p130
aV19
p131
aV1.00
p132
aV0.00
p133
aV0.05
p134
aV0.00
p135
aV0.00
p136
aV0.00
p137
aV0.00
p138
aV0.00
p139
aVnormal.
p140
atp141
a(Vnormal.
p142
(lp143
V0
p144
aVtcp
p145
aVhttp
p146
aVSF
p147
aV235
p148
aV1337
p149
aV0
p150
aV0
p151
aV0
p152
aV0
p153
aV0
p154
aV1
p155
aV0
p156
aV0
p157
aV0
p158
aV0
p159
aV0
p160
aV0
p161
aV0
p162
aV0
p163
aV0
p164
aV0
p165
aV8
p166
aV8
p167
aV0.00
p168
aV0.00
p169
aV0.00
p170
aV0.00
p171
aV1.00
p172
aV0.00
p173
aV0.00
p174
aV29
p175
aV29
p176
aV1.00
p177
aV0.00
p178
aV0.03
p179
aV0.00
p180
aV0.00
p181
aV0.00
p182
aV0.00
p183
aV0.00
p184
aVnormal.
p185
atp186
aag19
aass.