(dp0
S'ex_2'
p1
(dp2
S'inputs'
p3
(lp4
(lp5
S'../../Data/makes.parquet'
p6
aI3
aasS'outputs'
p7
(lp8
(lp9
(lp10
(S'USA'
p11
I16
tp12
a(S'Japan'
p13
I10
tp14
a(S'UK'
p15
I8
tp16
aac__builtin__
list
p17
aassS'ex_3'
p18
(dp19
S'inputs'
p20
(lp21
(lp22
S'../../Data/city_student.csv'
p23
aasS'outputs'
p24
(lp25
(lp26
I15
ac__builtin__
int
p27
aassS'ex_1'
p28
(dp29
S'inputs'
p30
(lp31
(lp32
S'../../Data/makes.json'
p33
aI3
aasS'outputs'
p34
(lp35
(lp36
(lp37
S'Germany'
p38
aS'Italy'
p39
aS'USA'
p40
aS'UK'
p41
aS'Japan'
p42
aag17
aass.