(dp0
S'ex3_2'
p1
(dp2
S'inputs'
p3
(lp4
(lp5
I0
aI1
aI2
aa(lp6
I4
aI5
aI6
aI7
aI8
aI9
aI10
aI11
aa(lp7
I-4
aI-3
aI-2
aI-1
aa(lp8
I0
aI2
aI1
aasS'outputs'
p9
(lp10
(lp11
(lp12
I0
aI1
aacpyspark.rdd
PipelinedRDD
p13
aa(lp14
(lp15
I5
aI6
aI7
aI11
aag13
aa(lp16
(lp17
I-1
aag13
aa(lp18
(lp19
I0
aI1
aag13
aassS'ex3_3'
p20
(dp21
S'inputs'
p22
(lp23
(lp24
S'this'
p25
aS'is'
p26
aS'the'
p27
aS'best'
p28
aS'mac'
p29
aS'ever'
p30
aa(lp31
S'Hasta'
p32
aS'la'
p33
aS'vista'
p34
aS'baby'
p35
aa(lp36
S'A'
p37
aS'long'
p38
aS'time'
p39
aS'ago'
p40
aS'in'
p41
aS'a'
p42
aS'galaxy'
p43
aS'far'
p44
ag44
aS'away'
p45
aasS'outputs'
p46
(lp47
(lp48
(lp49
S'this'
p50
aS'best'
p51
aS'ever'
p52
aag13
aa(lp53
(lp54
S'Hasta'
p55
aS'vista'
p56
aS'baby'
p57
aag13
aa(lp58
(lp59
S'long'
p60
aS'time'
p61
aS'galaxy'
p62
aS'away'
p63
aag13
aassS'ex3_1'
p64
(dp65
S'inputs'
p66
(lp67
(lp68
(lp69
I3
aI4
aa(lp70
I2
aI1
aa(lp71
I7
aI9
aaa(lp72
(lp73
I3
aI42
aI12
aI4
aa(lp74
I6
aI0
aI-1
aa(lp75
I32
aI31
aI2
aI52
aI3
aaasS'outputs'
p76
(lp77
(lp78
I15
ac__builtin__
int
p79
aa(lp80
I100
ag79
aassS'ex3_6'
p81
(dp82
S'inputs'
p83
(lp84
(lp85
(lp86
S'spark basics'
p87
aS'big data analysis'
p88
aS'spring'
p89
aa(lp90
S'spark using pyspark'
p91
aS'big data'
p92
aaasS'outputs'
p93
(lp94
(lp95
(lp96
S'spark'
p97
aS'big'
p98
aS'data'
p99
aag13
aassS'ex3_7'
p100
(dp101
S'inputs'
p102
(lp103
(lp104
(lp105
S'spark basics'
p106
aS'big data analysis'
p107
aS'spring'
p108
aa(lp109
S'spark using pyspark'
p110
aS'big data'
p111
aaasS'outputs'
p112
(lp113
(lp114
(lp115
S'analysis'
p116
aS'spring'
p117
aS'basics'
p118
aag13
aassS'ex3_4'
p119
(dp120
S'inputs'
p121
(lp122
(lp123
I2
aI3
aI5
aa(lp124
I5
aI3
aI1
aa(lp125
I1
aI2
aI3
aI4
aI5
aasS'outputs'
p126
(lp127
(lp128
(lp129
I1
aI2
aI1
aI2
aI3
aI1
aI2
aI3
aI4
aI5
aag13
aa(lp130
(lp131
I1
aI2
aI3
aI4
aI5
aI1
aI2
aI3
aI1
aag13
aa(lp132
(lp133
I1
aI1
aI2
aI1
aI2
aI3
aI1
aI2
aI3
aI4
aI1
aI2
aI3
aI4
aI5
aag13
aassS'ex3_5'
p134
(dp135
S'inputs'
p136
(lp137
(lp138
(lp139
S'spark basics'
p140
aS'big data analysis'
p141
aS'spring'
p142
aa(lp143
S'spark using pyspark'
p144
aS'big data'
p145
aaasS'outputs'
p146
(lp147
(lp148
(lp149
S'spark'
p150
aS'basics'
p151
aS'big'
p152
aS'data'
p153
aS'analysis'
p154
aS'spring'
p155
aS'spark'
p156
aS'using'
p157
aS'pyspark'
p158
aS'big'
p159
aS'data'
p160
aacpyspark.rdd
RDD
p161
aassS'ex3_8'
p162
(dp163
S'inputs'
p164
(lp165
(lp166
(lp167
S'spark basics'
p168
aS'big data analysis'
p169
aS'spring'
p170
aa(lp171
S'spark using pyspark'
p172
aS'big data'
p173
aaasS'outputs'
p174
(lp175
(lp176
(lp177
(S'spark'
p178
S'spark'
p179
tp180
a(S'spark'
p181
S'using'
p182
tp183
a(g181
S'pyspark'
p184
tp185
a(S'basics'
p186
S'spark'
p187
tp188
a(S'basics'
p189
S'using'
p190
tp191
a(g189
S'pyspark'
p192
tp193
a(S'spark'
p194
S'big'
p195
tp196
a(S'spark'
p197
S'data'
p198
tp199
a(S'basics'
p200
S'big'
p201
tp202
a(S'basics'
p203
S'data'
p204
tp205
a(S'big'
p206
S'spark'
p207
tp208
a(S'big'
p209
S'using'
p210
tp211
a(g209
S'pyspark'
p212
tp213
a(S'data'
p214
S'spark'
p215
tp216
a(S'analysis'
p217
g215
tp218
a(S'data'
p219
S'using'
p220
tp221
a(g219
S'pyspark'
p222
tp223
a(S'analysis'
p224
g220
tp225
a(g224
g222
tp226
a(S'big'
p227
S'big'
p228
tp229
a(S'big'
p230
S'data'
p231
tp232
a(S'data'
p233
S'big'
p234
tp235
a(S'analysis'
p236
g234
tp237
a(S'data'
p238
S'data'
p239
tp240
a(S'analysis'
p241
g239
tp242
a(S'spring'
p243
S'spark'
p244
tp245
a(S'spring'
p246
S'using'
p247
tp248
a(g246
S'pyspark'
p249
tp250
a(S'spring'
p251
S'big'
p252
tp253
a(S'spring'
p254
S'data'
p255
tp256
aag161
aassS'ex4'
p257
(lp258
(lp259
I15
ag79
aa(lp260
I100
ag79
aas.