(dp0
S'ex4'
p1
(lp2
(lp3
S'Spring quarter Learning spark basics Big data analytics with Spark'
p4
ac__builtin__
str
p5
aa(lp6
S'Do not go gentle into that good night old age should burn and rave'
p7
ag5
aa(lp8
S'do I dare disturb the universe there will be time there will be time'
p9
ag5
aasS'ex5'
p10
(lp11
(lp12
(lp13
I21
aac__builtin__
list
p14
aa(lp15
(lp16
F19.1
aag14
aa(lp17
(lp18
I-3
aag14
aasS'ex2'
p19
(lp20
(lp21
(lp22
(lp23
S'Spring'
p24
aS'quarter'
p25
aa(lp26
S'Learning'
p27
aS'spark'
p28
aS'basics'
p29
aa(lp30
S'Big'
p31
aS'data'
p32
aS'analytics'
p33
aS'with'
p34
aS'Spark'
p35
aaacpyspark.rdd
PipelinedRDD
p36
aa(lp37
(lp38
(lp39
S'Do'
p40
aS'not'
p41
aS'go'
p42
aS'gentle'
p43
aa(lp44
S'into'
p45
aS'that'
p46
aS'good'
p47
aS'night'
p48
aa(lp49
S'old'
p50
aS'age'
p51
aS'should'
p52
aS'burn'
p53
aS'and'
p54
aS'rave'
p55
aaag36
aa(lp56
(lp57
(lp58
S'do'
p59
aa(lp60
S'I'
p61
aS'dare'
p62
aS'disturb'
p63
aa(lp64
S'the'
p65
aS'universe'
p66
aa(lp67
S'there'
p68
aS'will'
p69
aS'be'
p70
aS'time'
p71
aS'there'
p72
aS'will'
p73
aS'be'
p74
aa(lp75
S'time'
p76
aaag36
aasS'ex3'
p77
(lp78
(lp79
I4
ac__builtin__
int
p80
aa(lp81
F-3.1
ac__builtin__
float
p82
aa(lp83
I2
ag80
aasS'ex1'
p84
(lp85
(lp86
(lp87
cnumpy.core.multiarray
scalar
p88
(cnumpy
dtype
p89
(S'f8'
p90
I0
I1
tp91
Rp92
(I3
S'<'
p93
NNNI-1
I-1
I0
tp94
bS'\x00\x00\x00\x00\x00\x00\xf0?'
p95
tp96
Rp97
ag88
(g92
S'\x8c\x06\xb5\x0f(J\xe1?'
p98
tp99
Rp100
ag88
(g92
S'\x05rSW&\xa2\xda\xbf'
p101
tp102
Rp103
aag36
aa(lp104
(lp105
g88
(g92
S'\xc1$\xdb\x06\xa6\xea\xe4\xbf'
p106
tp107
Rp108
ag88
(g92
S"\xd9Jkp\x85'\xd2?"
p109
tp110
Rp111
ag88
(g92
S'\xf5"x\t\xb7\xb9\xee?'
p112
tp113
Rp114
ag88
(g92
S'\x17 \xd9\x9e\xf7\x1f\xe8?'
p115
tp116
Rp117
ag88
(g92
S'\x94/c\xbf\xbe\x9f\xc2\xbf'
p118
tp119
Rp120
ag88
(g92
S"k\x19\xa6\xa6\xfa'\xed\xbf"
p121
tp122
Rp123
ag88
(g92
S'\x1fk\x0c\x89\xac\xd9\xea\xbf'
p124
tp125
Rp126
ag88
(g92
S'\xdf/\xeeA\xae r?'
p127
tp128
Rp129
aag36
aa(lp130
(lp131
g88
(g92
S'\xc1$\xdb\x06\xa6\xea\xe4\xbf'
p132
tp133
Rp134
ag88
(g92
S'\xd2\xe5\x85\xbe\x04\xae\xef\xbf'
p135
tp136
Rp137
ag88
(g92
S'\x05rSW&\xa2\xda\xbf'
p138
tp139
Rp140
ag88
(g92
S'\x8c\x06\xb5\x0f(J\xe1?'
p141
tp142
Rp143
aag36
aasS'ex1_4'
p144
(dp145
S'inputs'
p146
(lp147
(lp148
S'Spring quarter'
p149
aS'Learning spark basics'
p150
aS'Big data analytics with Spark'
p151
aa(lp152
S'Do not go gentle'
p153
aS'into that good night'
p154
aS'old age should burn and rave'
p155
aa(lp156
S'do'
p157
aS'I dare disturb'
p158
aS'the universe'
p159
aS'there will be time there will be'
p160
aS'time'
p161
aasS'outputs'
p162
(lp163
(lp164
S'Spring quarter Learning spark basics Big data analytics with Spark'
p165
ag5
aa(lp166
S'Do not go gentle into that good night old age should burn and rave'
p167
ag5
aa(lp168
S'do I dare disturb the universe there will be time there will be time'
p169
ag5
aassS'ex1_5'
p170
(dp171
S'inputs'
p172
(lp173
(lp174
(lp175
I15
aI20
aa(lp176
I21
aI14
aa(lp177
I18
aI4
aI20
aaa(lp178
(lp179
I3
aI4
aI5
aI-3
aI19
aa(lp180
F19.1
aa(lp181
I7
aI-11
aaa(lp182
(lp183
F-3.2
aF-3.233
aF-3.9
aa(lp184
I-4
aa(lp185
I-3
aI-5
aaasS'outputs'
p186
(lp187
(lp188
(lp189
I21
aag14
aa(lp190
(lp191
F19.1
aag14
aa(lp192
(lp193
I-3
aag14
aassS'ex1_1'
p194
(dp195
S'inputs'
p196
(lp197
(lp198
I0
aI1
aI2
aa(lp199
I4
aI5
aI6
aI7
aI8
aI9
aI10
aI11
aa(lp200
I-4
aI-3
aI-2
aI-1
aasS'outputs'
p201
(lp202
(lp203
(lp204
g88
(g92
S'\x00\x00\x00\x00\x00\x00\xf0?'
p205
tp206
Rp207
ag88
(g92
S'\x8c\x06\xb5\x0f(J\xe1?'
p208
tp209
Rp210
ag88
(g92
S'\x05rSW&\xa2\xda\xbf'
p211
tp212
Rp213
aag36
aa(lp214
(lp215
g88
(g92
S'\xc1$\xdb\x06\xa6\xea\xe4\xbf'
p216
tp217
Rp218
ag88
(g92
S"\xd9Jkp\x85'\xd2?"
p219
tp220
Rp221
ag88
(g92
S'\xf5"x\t\xb7\xb9\xee?'
p222
tp223
Rp224
ag88
(g92
S'\x17 \xd9\x9e\xf7\x1f\xe8?'
p225
tp226
Rp227
ag88
(g92
S'\x94/c\xbf\xbe\x9f\xc2\xbf'
p228
tp229
Rp230
ag88
(g92
S"k\x19\xa6\xa6\xfa'\xed\xbf"
p231
tp232
Rp233
ag88
(g92
S'\x1fk\x0c\x89\xac\xd9\xea\xbf'
p234
tp235
Rp236
ag88
(g92
S'\xdf/\xeeA\xae r?'
p237
tp238
Rp239
aag36
aa(lp240
(lp241
g88
(g92
S'\xc1$\xdb\x06\xa6\xea\xe4\xbf'
p242
tp243
Rp244
ag88
(g92
S'\xd2\xe5\x85\xbe\x04\xae\xef\xbf'
p245
tp246
Rp247
ag88
(g92
S'\x05rSW&\xa2\xda\xbf'
p248
tp249
Rp250
ag88
(g92
S'\x8c\x06\xb5\x0f(J\xe1?'
p251
tp252
Rp253
aag36
aassS'ex1_2'
p254
(dp255
S'inputs'
p256
(lp257
(lp258
S'Spring quarter'
p259
aS'Learning spark basics'
p260
aS'Big data analytics with Spark'
p261
aa(lp262
S'Do not go gentle'
p263
aS'into that good night'
p264
aS'old age should burn and rave'
p265
aa(lp266
S'do'
p267
aS'I dare disturb'
p268
aS'the universe'
p269
aS'there will be time there will be'
p270
aS'time'
p271
aasS'outputs'
p272
(lp273
(lp274
(lp275
(lp276
S'Spring'
p277
aS'quarter'
p278
aa(lp279
S'Learning'
p280
aS'spark'
p281
aS'basics'
p282
aa(lp283
S'Big'
p284
aS'data'
p285
aS'analytics'
p286
aS'with'
p287
aS'Spark'
p288
aaag36
aa(lp289
(lp290
(lp291
S'Do'
p292
aS'not'
p293
aS'go'
p294
aS'gentle'
p295
aa(lp296
S'into'
p297
aS'that'
p298
aS'good'
p299
aS'night'
p300
aa(lp301
S'old'
p302
aS'age'
p303
aS'should'
p304
aS'burn'
p305
aS'and'
p306
aS'rave'
p307
aaag36
aa(lp308
(lp309
(lp310
S'do'
p311
aa(lp312
S'I'
p313
aS'dare'
p314
aS'disturb'
p315
aa(lp316
S'the'
p317
aS'universe'
p318
aa(lp319
S'there'
p320
aS'will'
p321
aS'be'
p322
aS'time'
p323
aS'there'
p324
aS'will'
p325
aS'be'
p326
aa(lp327
S'time'
p328
aaag36
aassS'ex1_3'
p329
(dp330
S'inputs'
p331
(lp332
(lp333
I0
aI4
aI2
aI3
aI1
aa(lp334
F-3.2
aF-3.233
aF-3.1
aF-3.9
aa(lp335
I2
aI2
aI2
aI2
aI2
aI2
aasS'outputs'
p336
(lp337
(lp338
I4
ag80
aa(lp339
F-3.1
ag82
aa(lp340
I2
ag80
aass.