(dp0
S'ex6'
p1
(dp2
S'inputs'
p3
(lp4
(lp5
(lp6
S'spark basics'
p7
aS'big data analysis'
p8
aS'spring'
p9
aa(lp10
S'spark using pyspark'
p11
aS'big data'
p12
aaasS'outputs'
p13
(lp14
(lp15
(lp16
S'big'
p17
aS'spark'
p18
aS'data'
p19
aacpyspark.rdd
PipelinedRDD
p20
aassS'ex7'
p21
(dp22
S'inputs'
p23
(lp24
(lp25
(lp26
S'spark basics'
p27
aS'big data analysis'
p28
aS'spring'
p29
aa(lp30
S'spark using pyspark'
p31
aS'big data'
p32
aaasS'outputs'
p33
(lp34
(lp35
(lp36
S'spring'
p37
aS'basics'
p38
aS'analysis'
p39
aag20
aassS'ex4'
p40
(dp41
S'inputs'
p42
(lp43
(lp44
I2
aI3
aI5
aa(lp45
I5
aI3
aI1
aa(lp46
I1
aI2
aI3
aI4
aI5
aasS'outputs'
p47
(lp48
(lp49
(lp50
I1
aI2
aI1
aI2
aI3
aI1
aI2
aI3
aI4
aI5
aag20
aa(lp51
(lp52
I1
aI2
aI3
aI4
aI5
aI1
aI2
aI3
aI1
aag20
aa(lp53
(lp54
I1
aI1
aI2
aI1
aI2
aI3
aI1
aI2
aI3
aI4
aI1
aI2
aI3
aI4
aI5
aag20
aassS'ex5'
p55
(dp56
S'inputs'
p57
(lp58
(lp59
(lp60
S'spark basics'
p61
aS'big data analysis'
p62
aS'spring'
p63
aa(lp64
S'spark using pyspark'
p65
aS'big data'
p66
aaasS'outputs'
p67
(lp68
(lp69
(lp70
S'spark'
p71
aS'basics'
p72
aS'big'
p73
aS'data'
p74
aS'analysis'
p75
aS'spring'
p76
aS'spark'
p77
aS'using'
p78
aS'pyspark'
p79
aS'big'
p80
aS'data'
p81
aacpyspark.rdd
RDD
p82
aassS'ex2'
p83
(dp84
S'inputs'
p85
(lp86
(lp87
I0
aI1
aI2
aa(lp88
I4
aI5
aI6
aI7
aI8
aI9
aI10
aI11
aa(lp89
I-4
aI-3
aI-2
aI-1
aa(lp90
I0
aI2
aI1
aasS'outputs'
p91
(lp92
(lp93
(lp94
I0
aI1
aag20
aa(lp95
(lp96
I5
aI6
aI7
aI11
aag20
aa(lp97
(lp98
I-1
aag20
aa(lp99
(lp100
I0
aI1
aag20
aassS'ex3'
p101
(dp102
S'inputs'
p103
(lp104
(lp105
S'this'
p106
aS'is'
p107
aS'the'
p108
aS'best'
p109
aS'mac'
p110
aS'ever'
p111
aa(lp112
S'Hasta'
p113
aS'la'
p114
aS'vista'
p115
aS'baby'
p116
aa(lp117
S'A'
p118
aS'long'
p119
aS'time'
p120
aS'ago'
p121
aS'in'
p122
aS'a'
p123
aS'galaxy'
p124
aS'far'
p125
ag125
aS'away'
p126
aasS'outputs'
p127
(lp128
(lp129
(lp130
S'this'
p131
aS'best'
p132
aS'ever'
p133
aag20
aa(lp134
(lp135
S'Hasta'
p136
aS'vista'
p137
aS'baby'
p138
aag20
aa(lp139
(lp140
S'long'
p141
aS'time'
p142
aS'galaxy'
p143
aS'away'
p144
aag20
aassS'ex1'
p145
(dp146
S'inputs'
p147
(lp148
(lp149
(lp150
I3
aI4
aa(lp151
I2
aI1
aa(lp152
I7
aI9
aaa(lp153
(lp154
I3
aI42
aI12
aI4
aa(lp155
I6
aI0
aI-1
aa(lp156
I32
aI31
aI2
aI52
aI3
aaasS'outputs'
p157
(lp158
(lp159
I15
ac__builtin__
int
p160
aa(lp161
I100
ag160
aassS'ex8'
p162
(dp163
S'inputs'
p164
(lp165
(lp166
(lp167
S'spark basics'
p168
aS'big data analysis'
p169
aS'spring'
p170
aa(lp171
S'spark using pyspark'
p172
aS'big data'
p173
aaasS'outputs'
p174
(lp175
(lp176
(lp177
(S'spark'
p178
S'spark'
p179
tp180
a(S'spark'
p181
S'using'
p182
tp183
a(g181
S'pyspark'
p184
tp185
a(S'basics'
p186
S'spark'
p187
tp188
a(S'basics'
p189
S'using'
p190
tp191
a(g189
S'pyspark'
p192
tp193
a(S'spark'
p194
S'big'
p195
tp196
a(S'spark'
p197
S'data'
p198
tp199
a(S'basics'
p200
S'big'
p201
tp202
a(S'basics'
p203
S'data'
p204
tp205
a(S'big'
p206
S'spark'
p207
tp208
a(S'big'
p209
S'using'
p210
tp211
a(g209
S'pyspark'
p212
tp213
a(S'data'
p214
S'spark'
p215
tp216
a(S'analysis'
p217
g215
tp218
a(S'data'
p219
S'using'
p220
tp221
a(g219
S'pyspark'
p222
tp223
a(S'analysis'
p224
g220
tp225
a(g224
g222
tp226
a(S'big'
p227
S'big'
p228
tp229
a(S'big'
p230
S'data'
p231
tp232
a(S'data'
p233
S'big'
p234
tp235
a(S'analysis'
p236
g234
tp237
a(S'data'
p238
S'data'
p239
tp240
a(S'analysis'
p241
g239
tp242
a(S'spring'
p243
S'spark'
p244
tp245
a(S'spring'
p246
S'using'
p247
tp248
a(g246
S'pyspark'
p249
tp250
a(S'spring'
p251
S'big'
p252
tp253
a(S'spring'
p254
S'data'
p255
tp256
aag82
aass.